Certificate:
    Data:
        Version: 3 (0x2)
        Serial Number:
            61:25:1e:80:00:00:00:00:00:1c
    Signature Algorithm: sha256WithRSAEncryption
        Issuer: CN = Amazon.com Internal Root Certificate Authority
        Validity
            Not Before: Feb 13 22:14:35 2015 GMT
            Not After : Feb 13 22:24:35 2020 GMT
        Subject: DC = com, DC = amazon, DC = ant, CN = Amazon.com InfoSec CA G3
        Subject Public Key Info:
            Public Key Algorithm: rsaEncryption
                Public-Key: (2048 bit)
                Modulus:
                    00:b7:77:6e:93:ed:33:75:89:99:5e:eb:81:d4:98:
                    d6:b4:59:ee:37:a7:7d:75:73:37:19:a5:a6:18:27:
                    80:7e:2e:ae:f4:0d:73:d2:ba:a7:0c:98:f0:5e:40:
                    08:18:c0:3d:f6:4c:cc:cc:50:ba:7c:ea:51:93:46:
                    ef:75:63:38:57:29:20:1e:68:54:6c:9e:cf:c9:14:
                    bd:12:d3:43:22:12:ea:2c:66:a0:eb:9c:46:91:43:
                    03:2e:a9:10:61:f2:6a:83:f0:b9:f2:26:05:e2:cd:
                    33:ea:be:97:4d:3b:c0:b9:cf:33:b8:c1:66:c7:12:
                    69:0d:d6:6a:c3:76:ec:a5:d4:f3:67:bd:3e:f1:96:
                    42:40:95:2f:54:bd:39:2a:b3:37:9f:d9:b0:35:ad:
                    7e:f2:4d:77:53:b9:ba:64:d8:2f:c9:d2:20:a9:a0:
                    d4:fd:c0:ba:08:ab:ed:43:0d:2e:59:c4:68:45:26:
                    47:82:51:c8:ab:88:0b:95:3e:89:33:8c:56:8b:f3:
                    a7:49:4c:5a:c2:11:34:b7:ef:89:b2:f3:76:c1:25:
                    3e:a5:01:05:98:94:d7:ea:c3:37:e4:ea:c9:39:64:
                    f5:f8:5d:41:fa:4d:41:dc:68:ed:9d:12:f1:b1:30:
                    cc:e2:b3:97:79:e6:c2:52:f7:8c:c8:91:85:54:31:
                    5a:d3
                Exponent: 65537 (0x10001)
        X509v3 extensions:
            1.3.6.1.4.1.311.21.1: 
                .....
            1.3.6.1.4.1.311.21.2: 
                ..@....T..1...>....KEH
            X509v3 Subject Key Identifier: 
                82:5A:69:A8:49:9D:64:CB:14:36:B3:61:5B:93:71:A7:F0:11:C8:0C
            1.3.6.1.4.1.311.20.2: 
                .
.S.u.b.C.A
            X509v3 Key Usage: 
                Digital Signature, Certificate Sign, CRL Sign
            X509v3 Basic Constraints: critical
                CA:TRUE
            X509v3 Authority Key Identifier: 
                keyid:7F:8D:B1:4E:4C:A2:98:0A:DC:8B:27:BF:62:05:69:3C:25:12:B3:C2

            X509v3 CRL Distribution Points: 

                Full Name:
                  URI:http://pki.amazon.com/crl/Amazon.com%20Internal%20Root%20Certificate%20Authority.crl

            Authority Information Access: 
                CA Issuers - URI:http://pki.amazon.com/crt/Amazon.com%20Internal%20Root%20Certificate%20Authority.crt

    Signature Algorithm: sha256WithRSAEncryption
         ce:a5:e5:7d:fa:e7:94:54:93:b8:c9:7b:98:8c:f3:af:83:28:
         7d:1e:4a:76:1e:5b:dc:b6:50:54:82:6d:c3:e7:3d:8a:c3:8f:
         7f:81:58:5d:7d:86:50:f3:af:c8:17:ba:46:b7:62:cb:84:cc:
         0a:f3:51:1a:ce:83:f8:7a:a8:88:4c:31:1f:4c:8c:d3:54:46:
         ab:56:e6:c3:81:bf:98:9e:a1:6f:a5:cf:a8:6c:92:0d:79:8b:
         6c:b1:f7:c3:e2:41:4f:db:a2:2a:34:57:90:41:4d:82:16:30:
         79:31:46:f0:47:e2:cf:73:99:67:c1:f5:48:82:09:65:1b:86:
         e2:42:c1:81:5f:7d:23:5d:a2:aa:71:74:a0:4a:e7:a2:ac:17:
         5b:e7:1e:02:54:16:35:8b:df:14:6e:db:ff:6a:f1:8b:c9:ee:
         af:b4:44:7e:8e:90:36:25:ab:e7:b2:da:b4:4a:84:08:5a:87:
         4d:8e:35:04:a8:46:31:8f:af:01:d2:10:be:73:aa:65:68:24:
         26:58:ad:cb:39:64:20:17:ca:5a:29:7b:1e:d0:84:f3:04:52:
         b2:a6:08:49:01:f3:49:ec:98:c9:1b:5b:26:5e:86:45:49:85:
         47:c0:8a:09:a9:3d:44:52:0d:8e:04:71:03:eb:43:4e:b7:37:
         8b:c3:f3:40
-----BEGIN CERTIFICATE-----
MIIEszCCA5ugAwIBAgIKYSUegAAAAAAAHDANBgkqhkiG9w0BAQsFADA5MTcwNQYD
VQQDEy5BbWF6b24uY29tIEludGVybmFsIFJvb3QgQ2VydGlmaWNhdGUgQXV0aG9y
aXR5MB4XDTE1MDIxMzIyMTQzNVoXDTIwMDIxMzIyMjQzNVowZTETMBEGCgmSJomT
8ixkARkWA2NvbTEWMBQGCgmSJomT8ixkARkWBmFtYXpvbjETMBEGCgmSJomT8ixk
ARkWA2FudDEhMB8GA1UEAxMYQW1hem9uLmNvbSBJbmZvU2VjIENBIEczMIIBIjAN
BgkqhkiG9w0BAQEFAAOCAQ8AMIIBCgKCAQEAt3duk+0zdYmZXuuB1JjWtFnuN6d9
dXM3GaWmGCeAfi6u9A1z0rqnDJjwXkAIGMA99kzMzFC6fOpRk0bvdWM4VykgHmhU
bJ7PyRS9EtNDIhLqLGag65xGkUMDLqkQYfJqg/C58iYF4s0z6r6XTTvAuc8zuMFm
xxJpDdZqw3bspdTzZ70+8ZZCQJUvVL05KrM3n9mwNa1+8k13U7m6ZNgvydIgqaDU
/cC6CKvtQw0uWcRoRSZHglHIq4gLlT6JM4xWi/OnSUxawhE0t++JsvN2wSU+pQEF
mJTX6sM35OrJOWT1+F1B+k1B3GjtnRLxsTDM4rOXeebCUveMyJGFVDFa0wIDAQAB
o4IBjzCCAYswEgYJKwYBBAGCNxUBBAUCAwEAATAjBgkrBgEEAYI3FQIEFgQUQJMa
85RU9cQxCLoZPo3aih1LRUgwHQYDVR0OBBYEFIJaaahJnWTLFDazYVuTcafwEcgM
MBkGCSsGAQQBgjcUAgQMHgoAUwB1AGIAQwBBMAsGA1UdDwQEAwIBhjAPBgNVHRMB
Af8EBTADAQH/MB8GA1UdIwQYMBaAFH+NsU5MopgK3Isnv2IFaTwlErPCMGUGA1Ud
HwReMFwwWqBYoFaGVGh0dHA6Ly9wa2kuYW1hem9uLmNvbS9jcmwvQW1hem9uLmNv
bSUyMEludGVybmFsJTIwUm9vdCUyMENlcnRpZmljYXRlJTIwQXV0aG9yaXR5LmNy
bDBwBggrBgEFBQcBAQRkMGIwYAYIKwYBBQUHMAKGVGh0dHA6Ly9wa2kuYW1hem9u
LmNvbS9jcnQvQW1hem9uLmNvbSUyMEludGVybmFsJTIwUm9vdCUyMENlcnRpZmlj
YXRlJTIwQXV0aG9yaXR5LmNydDANBgkqhkiG9w0BAQsFAAOCAQEAzqXlffrnlFST
uMl7mIzzr4MofR5Kdh5b3LZQVIJtw+c9isOPf4FYXX2GUPOvyBe6Rrdiy4TMCvNR
Gs6D+HqoiEwxH0yM01RGq1bmw4G/mJ6hb6XPqGySDXmLbLH3w+JBT9uiKjRXkEFN
ghYweTFG8Efiz3OZZ8H1SIIJZRuG4kLBgV99I12iqnF0oErnoqwXW+ceAlQWNYvf
FG7b/2rxi8nur7REfo6QNiWr57LatEqECFqHTY41BKhGMY+vAdIQvnOqZWgkJlit
yzlkIBfKWil7HtCE8wRSsqYISQHzSeyYyRtbJl6GRUmFR8CKCak9RFINjgRxA+tD
Trc3i8PzQA==
-----END CERTIFICATE-----
