Certificate:
    Data:
        Version: 3 (0x2)
        Serial Number:
            57:87:14:f0:8d:e1:d9:ab:4a:25:7a:e5:d7:ae:fe:21
    Signature Algorithm: sha1WithRSAEncryption
        Issuer: CN = Amazon.com Internal Root Certificate Authority
        Validity
            Not Before: Aug 30 18:02:25 2007 GMT
            Not After : Aug 30 18:10:59 2027 GMT
        Subject: CN = Amazon.com Internal Root Certificate Authority
        Subject Public Key Info:
            Public Key Algorithm: rsaEncryption
                Public-Key: (2048 bit)
                Modulus:
                    00:ee:81:87:46:9c:36:a3:16:05:1b:7e:be:9e:93:
                    70:0f:9d:28:b2:ea:71:d4:59:41:1b:bf:12:8f:15:
                    ce:1e:89:66:96:70:60:60:7b:82:53:89:a9:b1:56:
                    66:6e:df:21:61:f3:a9:25:14:66:01:c6:2c:70:27:
                    7d:b3:a0:3e:7a:35:f5:a5:b9:b8:6f:d9:f7:8c:40:
                    5c:71:28:a3:a2:2b:77:59:48:80:cb:6c:6a:82:32:
                    f2:0b:0d:6f:e1:60:72:c6:2f:af:eb:14:31:4f:61:
                    b4:9b:b3:b9:89:2f:11:41:99:67:72:08:5b:df:a4:
                    31:44:30:37:0f:54:e1:4d:c3:81:04:40:be:d3:82:
                    63:e7:e6:5a:16:be:d8:24:48:0b:9e:e4:42:20:a4:
                    47:0a:c3:2f:3a:ca:5a:6f:ce:af:ce:8f:f1:84:5a:
                    a0:fc:b1:70:14:9e:15:8b:81:29:ba:af:58:ec:00:
                    a9:64:d6:d9:9a:2a:c6:96:06:33:02:e1:f8:92:83:
                    c6:6a:d4:92:3f:09:0f:85:72:46:79:9c:79:22:08:
                    1c:ed:cd:61:18:a7:59:bb:b8:14:01:05:c6:7f:fa:
                    5d:aa:77:3f:77:bb:fe:df:0f:19:b2:20:22:04:e1:
                    e9:c6:af:9c:53:59:2b:fd:30:33:70:41:07:7d:60:
                    b8:7d
                Exponent: 65537 (0x10001)
        X509v3 extensions:
            X509v3 Key Usage: 
                Digital Signature, Certificate Sign, CRL Sign
            X509v3 Basic Constraints: critical
                CA:TRUE
            X509v3 Subject Key Identifier: 
                7F:8D:B1:4E:4C:A2:98:0A:DC:8B:27:BF:62:05:69:3C:25:12:B3:C2
            1.3.6.1.4.1.311.21.1: 
                ...
            X509v3 Certificate Policies: 
                Policy: 1.3.6.1.4.1.4843.200.1.1.1
                  User Notice:
                    Explicit Text: 
                  CPS: http://pki.amazon.com/cps/

    Signature Algorithm: sha1WithRSAEncryption
         74:01:6e:9e:3d:96:90:f3:79:9c:13:d1:2d:76:e7:35:69:2a:
         78:9e:f2:d4:a0:9d:8d:00:8d:6f:e1:40:c1:dc:0d:22:06:08:
         0d:a3:d5:df:12:c7:e2:9f:fb:49:a1:79:16:b8:7c:6d:07:9b:
         9c:64:d0:16:dd:99:5e:b5:74:1f:5b:70:c0:6d:65:6b:e6:40:
         19:4e:fe:21:fe:ef:fd:3a:a0:15:64:23:ae:c5:83:14:66:a7:
         f0:26:23:f2:6e:6e:31:8f:d7:67:96:5e:85:f6:61:7b:52:be:
         48:ec:3f:8f:5f:e3:26:b8:93:6c:13:36:b7:32:a7:09:6b:17:
         1e:7e:b2:39:d1:74:e7:f6:e0:8c:83:1a:3a:ff:1e:7a:2e:a5:
         83:e3:a0:31:ad:80:5e:e1:88:c5:f0:54:3d:54:14:73:e1:2d:
         5c:4b:42:88:ee:60:38:d2:2e:5d:c8:e7:36:9e:69:c4:4f:a7:
         be:88:84:0f:18:7c:d0:89:3b:9e:ad:e0:91:84:6c:9b:2e:42:
         a2:df:20:a1:7b:85:30:e8:aa:90:e2:a4:95:54:06:1f:d6:72:
         63:ac:36:24:dd:15:07:1c:5f:79:25:c5:82:1f:24:e1:e2:c6:
         9f:4c:77:13:11:33:56:c7:c1:7d:31:65:a5:17:de:a0:67:80:
         7c:fc:e4:65
-----BEGIN CERTIFICATE-----
MIIEDzCCAvegAwIBAgIQV4cU8I3h2atKJXrl167+ITANBgkqhkiG9w0BAQUFADA5
MTcwNQYDVQQDEy5BbWF6b24uY29tIEludGVybmFsIFJvb3QgQ2VydGlmaWNhdGUg
QXV0aG9yaXR5MB4XDTA3MDgzMDE4MDIyNVoXDTI3MDgzMDE4MTA1OVowOTE3MDUG
A1UEAxMuQW1hem9uLmNvbSBJbnRlcm5hbCBSb290IENlcnRpZmljYXRlIEF1dGhv
cml0eTCCASIwDQYJKoZIhvcNAQEBBQADggEPADCCAQoCggEBAO6Bh0acNqMWBRt+
vp6TcA+dKLLqcdRZQRu/Eo8Vzh6JZpZwYGB7glOJqbFWZm7fIWHzqSUUZgHGLHAn
fbOgPno19aW5uG/Z94xAXHEoo6Ird1lIgMtsaoIy8gsNb+FgcsYvr+sUMU9htJuz
uYkvEUGZZ3IIW9+kMUQwNw9U4U3DgQRAvtOCY+fmWha+2CRIC57kQiCkRwrDLzrK
Wm/Or86P8YRaoPyxcBSeFYuBKbqvWOwAqWTW2ZoqxpYGMwLh+JKDxmrUkj8JD4Vy
RnmceSIIHO3NYRinWbu4FAEFxn/6Xap3P3e7/t8PGbIgIgTh6cavnFNZK/0wM3BB
B31guH0CAwEAAaOCAREwggENMAsGA1UdDwQEAwIBhjAPBgNVHRMBAf8EBTADAQH/
MB0GA1UdDgQWBBR/jbFOTKKYCtyLJ79iBWk8JRKzwjAQBgkrBgEEAYI3FQEEAwIB
ADCBuwYDVR0gBIGzMIGwMIGtBgwrBgEEAaVrgUgBAQEwgZwwcgYIKwYBBQUHAgIw
Zh5kAEEAbQBhAHoAbwBuAC4AYwBvAG0AIABJAG4AdABlAHIAbgBhAGwAIABDAGUA
cgB0AGkAZgBpAGMAYQB0AGUAIABQAHIAYQBjAHQAaQBjAGUAIABTAHQAYQB0AGUA
bQBlAG4AdDAmBggrBgEFBQcCARYaaHR0cDovL3BraS5hbWF6b24uY29tL2Nwcy8w
DQYJKoZIhvcNAQEFBQADggEBAHQBbp49lpDzeZwT0S125zVpKnie8tSgnY0AjW/h
QMHcDSIGCA2j1d8Sx+Kf+0mheRa4fG0Hm5xk0BbdmV61dB9bcMBtZWvmQBlO/iH+
7/06oBVkI67FgxRmp/AmI/JubjGP12eWXoX2YXtSvkjsP49f4ya4k2wTNrcypwlr
Fx5+sjnRdOf24IyDGjr/HnoupYPjoDGtgF7hiMXwVD1UFHPhLVxLQojuYDjSLl3I
5zaeacRPp76IhA8YfNCJO56t4JGEbJsuQqLfIKF7hTDoqpDipJVUBh/WcmOsNiTd
FQccX3klxYIfJOHixp9MdxMRM1bHwX0xZaUX3qBngHz85GU=
-----END CERTIFICATE-----
